target datalayout = "e-m:e-p270:32:32-p271:32:32-p272:64:64-i64:64-i128:128-f80:128-n8:16:32:64-S128"
target triple = "x86_64-pc-linux-gnu"

; Function Attrs: nounwind uwtable
define internal i32 @watchccs_read(ptr noundef %0, ptr noundef %1, i32 noundef %2) #0 {
  %4 = alloca i32, align 4
  %5 = alloca ptr, align 8
  %6 = alloca ptr, align 8
  %7 = alloca i32, align 4
  %8 = alloca i32, align 4
  %9 = alloca ptr, align 8
  %10 = alloca i32, align 4
  store ptr %0, ptr %5, align 8, !tbaa !19
  store ptr %1, ptr %6, align 8, !tbaa !4
  store i32 %2, ptr %7, align 4, !tbaa !9
  call void @llvm.lifetime.start.p0(i64 4, ptr %8) #6
  store i32 0, ptr %8, align 4, !tbaa !9
  call void @llvm.lifetime.start.p0(i64 8, ptr %9) #6
  %11 = load ptr, ptr %5, align 8, !tbaa !19
  %12 = call ptr @BIO_next(ptr noundef %11)
  store ptr %12, ptr %9, align 8, !tbaa !19
  %13 = load i32, ptr %7, align 4, !tbaa !9
  %14 = icmp sle i32 %13, 0
  br i1 %14, label %15, label %16

15:                                               ; preds = %3
  store i32 0, ptr %4, align 4
  store i32 1, ptr %10, align 4
  br label %36

16:                                               ; preds = %3
  %17 = load ptr, ptr %9, align 8, !tbaa !19
  %18 = icmp eq ptr %17, null
  br i1 %18, label %19, label %20

19:                                               ; preds = %16
  store i32 0, ptr %4, align 4
  store i32 1, ptr %10, align 4
  br label %36

20:                                               ; preds = %16
  %21 = load ptr, ptr %5, align 8, !tbaa !19
  call void @BIO_clear_flags(ptr noundef %21, i32 noundef 15)
  %22 = load ptr, ptr %9, align 8, !tbaa !19
  %23 = load ptr, ptr %6, align 8, !tbaa !4
  %24 = load i32, ptr %7, align 4, !tbaa !9
  %25 = call i32 @BIO_read(ptr noundef %22, ptr noundef %23, i32 noundef %24)
  store i32 %25, ptr %8, align 4, !tbaa !9
  %26 = load i32, ptr %8, align 4, !tbaa !9
  %27 = icmp sle i32 %26, 0
  br i1 %27, label %28, label %34

28:                                               ; preds = %20
  %29 = load ptr, ptr %9, align 8, !tbaa !19
  %30 = call i32 @BIO_test_flags(ptr noundef %29, i32 noundef 1)
  %31 = icmp ne i32 %30, 0
  br i1 %31, label %32, label %34

32:                                               ; preds = %28
  %33 = load ptr, ptr %5, align 8, !tbaa !19
  call void @BIO_set_flags(ptr noundef %33, i32 noundef 9)
  br label %34

34:                                               ; preds = %32, %28, %20
  %35 = load i32, ptr %8, align 4, !tbaa !9
  store i32 %35, ptr %4, align 4
  store i32 1, ptr %10, align 4
  br label %36

36:                                               ; preds = %34, %19, %15
  call void @llvm.lifetime.end.p0(i64 8, ptr %9) #6
  call void @llvm.lifetime.end.p0(i64 4, ptr %8) #6
  %37 = load i32, ptr %4, align 4
  ret i32 %37
}