; Function Attrs: nounwind uwtable
define internal i32 @watchccs_read(ptr noundef %0, ptr noundef %1, i32 noundef %2) #1 {
  %4 = tail call ptr @BIO_next(ptr noundef %0) #7
  %5 = icmp slt i32 %2, 1
  %6 = icmp eq ptr %4, null
  %or.cond = select i1 %5, i1 true, i1 %6
  br i1 %or.cond, label %13, label %7

7:                                                ; preds = %3
  tail call void @BIO_clear_flags(ptr noundef %0, i32 noundef 15) #7
  %8 = tail call i32 @BIO_read(ptr noundef nonnull %4, ptr noundef %1, i32 noundef %2) #7
  %9 = icmp slt i32 %8, 1
  br i1 %9, label %10, label %13

10:                                               ; preds = %7
  %11 = tail call i32 @BIO_test_flags(ptr noundef nonnull %4, i32 noundef 1) #7
  %.not = icmp eq i32 %11, 0
  br i1 %.not, label %13, label %12

12:                                               ; preds = %10
  tail call void @BIO_set_flags(ptr noundef %0, i32 noundef 9) #7
  br label %13

13:                                               ; preds = %7, %10, %12, %3
  %.0 = phi i32 [ 0, %3 ], [ %8, %12 ], [ %8, %10 ], [ %8, %7 ]
  ret i32 %.0
}